(dp1
S'output'
p2
S'<class \'applications.grade1.modules.stripe.error.AuthenticationError\'> Invalid API Key provided: "**_****_*********************b2T"'
p3
sS'layer'
p4
S"C:\\Users\\Mike's PC\\Documents\\Computer Science\\cmps 183\\web2py\\applications\\grade1\\controllers/default.py"
p5
sS'code'
p6
S'<code object <module> at 0000000005EE4830, file "C:\\Users\\Mike\'s PC\\Documents\\Computer Science\\cmps 183\\web2py\\applications\\grade1\\controllers/default.py", line 8>'
p7
sS'snapshot'
p8
(dp9
S'exception'
p10
(dp11
S'__module__'
p12
S"'applications.grade1.modules.stripe.error'"
p13
sS'__getslice__'
p14
S"<method-wrapper '__getslice__' of AuthenticationError object>"
p15
sS'__str__'
p16
S'<bound method AuthenticationError.__str__ of Aut... provided: "**_****_*********************b2T"\',)>'
p17
sS'__reduce__'
p18
S'<built-in method __reduce__ of AuthenticationError object>'
p19
sS'__dict__'
p20
S'{\'_message\': u\'Invalid API Key provided: "**_****_*********************b2T"\', \'headers\': {\'Content-Length\': \'138\', \'Access-Control-Expose...on\', \'Www-Authenticate\': \'Bearer realm="Stripe"\'}, \'http_body\': u\'{\\n  "error": {\\n    "message": "Invalid API K...,\\n    "type": "invalid_request_error"\\n  }\\n}\\n\', \'http_status\': 401, \'json_body\': {u\'error\': {u\'message\': u\'Invalid API Key provided: "**_****_*********************b2T"\', u\'type\': u\'invalid_request_error\'}}, \'request_id\': None}'
p21
sS'__sizeof__'
p22
S'<built-in method __sizeof__ of AuthenticationError object>'
p23
sS'__weakref__'
p24
S'None'
p25
sS'message'
p26
S'u\'Invalid API Key provided: "**_****_*********************b2T"\''
p27
sS'__init__'
p28
S'<bound method AuthenticationError.__init__ of Au... provided: "**_****_*********************b2T"\',)>'
p29
sS'__setattr__'
p30
S"<method-wrapper '__setattr__' of AuthenticationError object>"
p31
sS'__reduce_ex__'
p32
S'<built-in method __reduce_ex__ of AuthenticationError object>'
p33
sS'__new__'
p34
S'<built-in method __new__ of type object>'
p35
sS'headers'
p36
S'{\'Content-Length\': \'138\', \'Access-Control-Expose...on\', \'Www-Authenticate\': \'Bearer realm="Stripe"\'}'
p37
sS'__format__'
p38
S'<built-in method __format__ of AuthenticationError object>'
p39
sS'__class__'
p40
S"<class 'applications.grade1.modules.stripe.error.AuthenticationError'>"
p41
sS'__doc__'
p42
S'None'
p43
sS'__getitem__'
p44
S"<method-wrapper '__getitem__' of AuthenticationError object>"
p45
sS'__setstate__'
p46
S'<built-in method __setstate__ of AuthenticationError object>'
p47
sS'__getattribute__'
p48
S"<method-wrapper '__getattribute__' of AuthenticationError object>"
p49
sS'args'
p50
S'(u\'Invalid API Key provided: "**_****_*********************b2T"\',)'
p51
sS'json_body'
p52
S'{u\'error\': {u\'message\': u\'Invalid API Key provided: "**_****_*********************b2T"\', u\'type\': u\'invalid_request_error\'}}'
p53
sS'__subclasshook__'
p54
S'<built-in method __subclasshook__ of type object>'
p55
sS'__unicode__'
p56
S'<bound method AuthenticationError.__unicode__ of... provided: "**_****_*********************b2T"\',)>'
p57
sS'http_body'
p58
S'u\'{\\n  "error": {\\n    "message": "Invalid API K...,\\n    "type": "invalid_request_error"\\n  }\\n}\\n\''
p59
sS'_message'
p60
S'u\'Invalid API Key provided: "**_****_*********************b2T"\''
p61
sS'__delattr__'
p62
S"<method-wrapper '__delattr__' of AuthenticationError object>"
p63
sS'__repr__'
p64
S"<method-wrapper '__repr__' of AuthenticationError object>"
p65
sS'http_status'
p66
S'401'
p67
sS'request_id'
p68
S'None'
p69
sS'__hash__'
p70
S"<method-wrapper '__hash__' of AuthenticationError object>"
p71
ssS'evalue'
p72
S'Invalid API Key provided: "**_****_*********************b2T"'
p73
sS'request'
p74
cgluon.html
XML_unpickle
p75
(S's\xda\xd0\x00\x00<div><table><tr><td style="font-weight:bold;vertical-align:top;">ajax</td><td style="vertical-align:top;">:</td><td><div>True</div></td></tr><tr><td style="font-weight:bold;vertical-align:top;">application</td><td style="vertical-align:top;">:</td><td><div>grade1</div></td></tr><tr><td style="font-weight:bold;vertical-align:top;">args</td><td style="vertical-align:top;">:</td><td><div><table></table></div></td></tr><tr><td style="font-weight:bold;vertical-align:top;">cid</td><td style="vertical-align:top;">:</td><td><div>None</div></td></tr><tr><td style="font-weight:bold;vertical-align:top;">client</td><td style="vertical-align:top;">:</td><td><div>127.0.0.1</div></td></tr><tr><td style="font-weight:bold;vertical-align:top;">controller</td><td style="vertical-align:top;">:</td><td><div>default</div></td></tr><tr><td style="font-weight:bold;vertical-align:top;">cookies</td><td style="vertical-align:top;">:</td><td><div><table><tr><td style="font-weight:bold;vertical-align:top;">session_id_admin</td><td style="vertical-align:top;">:</td><td><div>127.0.0.1-c6bcad5e-790f-4509-9d20-9d70b8daf127<table><tr><td style="font-weight:bold;vertical-align:top;">comment</td><td style="vertical-align:top;">:</td><td><div></div></td></tr><tr><td style="font-weight:bold;vertical-align:top;">domain</td><td style="vertical-align:top;">:</td><td><div></div></td></tr><tr><td style="font-weight:bold;vertical-align:top;">expires</td><td style="vertical-align:top;">:</td><td><div></div></td></tr><tr><td style="font-weight:bold;vertical-align:top;">httponly</td><td style="vertical-align:top;">:</td><td><div></div></td></tr><tr><td style="font-weight:bold;vertical-align:top;">max-age</td><td style="vertical-align:top;">:</td><td><div></div></td></tr><tr><td style="font-weight:bold;vertical-align:top;">path</td><td style="vertical-align:top;">:</td><td><div></div></td></tr><tr><td style="font-weight:bold;vertical-align:top;">secure</td><td style="vertical-align:top;">:</td><td><div></div></td></tr><tr><td style="font-weight:bold;vertical-align:top;">version</td><td style="vertical-align:top;">:</td><td><div></div></td></tr></table></div></td></tr><tr><td style="font-weight:bold;vertical-align:top;">session_id_check</td><td style="vertical-align:top;">:</td><td><div>2:4e4e316c-3aa7-4e3b-b054-fbb6c6d41c20<table><tr><td style="font-weight:bold;vertical-align:top;">comment</td><td style="vertical-align:top;">:</td><td><div></div></td></tr><tr><td style="font-weight:bold;vertical-align:top;">domain</td><td style="vertical-align:top;">:</td><td><div></div></td></tr><tr><td style="font-weight:bold;vertical-align:top;">expires</td><td style="vertical-align:top;">:</td><td><div></div></td></tr><tr><td style="font-weight:bold;vertical-align:top;">httponly</td><td style="vertical-align:top;">:</td><td><div></div></td></tr><tr><td style="font-weight:bold;vertical-align:top;">max-age</td><td style="vertical-align:top;">:</td><td><div></div></td></tr><tr><td style="font-weight:bold;vertical-align:top;">path</td><td style="vertical-align:top;">:</td><td><div></div></td></tr><tr><td style="font-weight:bold;vertical-align:top;">secure</td><td style="vertical-align:top;">:</td><td><div></div></td></tr><tr><td style="font-weight:bold;vertical-align:top;">version</td><td style="vertical-align:top;">:</td><td><div></div></td></tr></table></div></td></tr><tr><td style="font-weight:bold;vertical-align:top;">session_id_daniel</td><td style="vertical-align:top;">:</td><td><div>1:fb76874a-1321-4928-a6e0-a6273c164e2d<table><tr><td style="font-weight:bold;vertical-align:top;">comment</td><td style="vertical-align:top;">:</td><td><div></div></td></tr><tr><td style="font-weight:bold;vertical-align:top;">domain</td><td style="vertical-align:top;">:</td><td><div></div></td></tr><tr><td style="font-weight:bold;vertical-align:top;">expires</td><td style="vertical-align:top;">:</td><td><div></div></td></tr><tr><td style="font-weight:bold;vertical-align:top;">httponly</td><td style="vertical-align:top;">:</td><td><div></div></td></tr><tr><td style="font-weight:bold;vertical-align:top;">max-age</td><td style="vertical-align:top;">:</td><td><div></div></td></tr><tr><td style="font-weight:bold;vertical-align:top;">path</td><td style="vertical-align:top;">:</td><td><div></div></td></tr><tr><td style="font-weight:bold;vertical-align:top;">secure</td><td style="vertical-align:top;">:</td><td><div></div></td></tr><tr><td style="font-weight:bold;vertical-align:top;">version</td><td style="vertical-align:top;">:</td><td><div></div></td></tr></table></div></td></tr><tr><td style="font-weight:bold;vertical-align:top;">session_id_grade1</td><td style="vertical-align:top;">:</td><td><div>1:46c7c6fc-8358-498f-8783-0875623e1786<table><tr><td style="font-weight:bold;vertical-align:top;">comment</td><td style="vertical-align:top;">:</td><td><div></div></td></tr><tr><td style="font-weight:bold;vertical-align:top;">domain</td><td style="vertical-align:top;">:</td><td><div></div></td></tr><tr><td style="font-weight:bold;vertical-align:top;">expires</td><td style="vertical-align:top;">:</td><td><div></div></td></tr><tr><td style="font-weight:bold;vertical-align:top;">httponly</td><td style="vertical-align:top;">:</td><td><div></div></td></tr><tr><td style="font-weight:bold;vertical-align:top;">max-age</td><td style="vertical-align:top;">:</td><td><div></div></td></tr><tr><td style="font-weight:bold;vertical-align:top;">path</td><td style="vertical-align:top;">:</td><td><div></div></td></tr><tr><td style="font-weight:bold;vertical-align:top;">secure</td><td style="vertical-align:top;">:</td><td><div></div></td></tr><tr><td style="font-weight:bold;vertical-align:top;">version</td><td style="vertical-align:top;">:</td><td><div></div></td></tr></table></div></td></tr><tr><td style="font-weight:bold;vertical-align:top;">session_id_grade2</td><td style="vertical-align:top;">:</td><td><div>1:d0e3120f-90e3-4a1e-9d8e-af14093d9156<table><tr><td style="font-weight:bold;vertical-align:top;">comment</td><td style="vertical-align:top;">:</td><td><div></div></td></tr><tr><td style="font-weight:bold;vertical-align:top;">domain</td><td style="vertical-align:top;">:</td><td><div></div></td></tr><tr><td style="font-weight:bold;vertical-align:top;">expires</td><td style="vertical-align:top;">:</td><td><div></div></td></tr><tr><td style="font-weight:bold;vertical-align:top;">httponly</td><td style="vertical-align:top;">:</td><td><div></div></td></tr><tr><td style="font-weight:bold;vertical-align:top;">max-age</td><td style="vertical-align:top;">:</td><td><div></div></td></tr><tr><td style="font-weight:bold;vertical-align:top;">path</td><td style="vertical-align:top;">:</td><td><div></div></td></tr><tr><td style="font-weight:bold;vertical-align:top;">secure</td><td style="vertical-align:top;">:</td><td><div></div></td></tr><tr><td style="font-weight:bold;vertical-align:top;">version</td><td style="vertical-align:top;">:</td><td><div></div></td></tr></table></div></td></tr><tr><td style="font-weight:bold;vertical-align:top;">session_id_grade3</td><td style="vertical-align:top;">:</td><td><div>1:3dc0df58-d68d-4c52-b71f-900288c5e7da<table><tr><td style="font-weight:bold;vertical-align:top;">comment</td><td style="vertical-align:top;">:</td><td><div></div></td></tr><tr><td style="font-weight:bold;vertical-align:top;">domain</td><td style="vertical-align:top;">:</td><td><div></div></td></tr><tr><td style="font-weight:bold;vertical-align:top;">expires</td><td style="vertical-align:top;">:</td><td><div></div></td></tr><tr><td style="font-weight:bold;vertical-align:top;">httponly</td><td style="vertical-align:top;">:</td><td><div></div></td></tr><tr><td style="font-weight:bold;vertical-align:top;">max-age</td><td style="vertical-align:top;">:</td><td><div></div></td></tr><tr><td style="font-weight:bold;vertical-align:top;">path</td><td style="vertical-align:top;">:</td><td><div></div></td></tr><tr><td style="font-weight:bold;vertical-align:top;">secure</td><td style="vertical-align:top;">:</td><td><div></div></td></tr><tr><td style="font-weight:bold;vertical-align:top;">version</td><td style="vertical-align:top;">:</td><td><div></div></td></tr></table></div></td></tr><tr><td style="font-weight:bold;vertical-align:top;">session_id_grade4</td><td style="vertical-align:top;">:</td><td><div>1:54603504-243b-47e2-ac7d-5421ba114a9d<table><tr><td style="font-weight:bold;vertical-align:top;">comment</td><td style="vertical-align:top;">:</td><td><div></div></td></tr><tr><td style="font-weight:bold;vertical-align:top;">domain</td><td style="vertical-align:top;">:</td><td><div></div></td></tr><tr><td style="font-weight:bold;vertical-align:top;">expires</td><td style="vertical-align:top;">:</td><td><div></div></td></tr><tr><td style="font-weight:bold;vertical-align:top;">httponly</td><td style="vertical-align:top;">:</td><td><div></div></td></tr><tr><td style="font-weight:bold;vertical-align:top;">max-age</td><td style="vertical-align:top;">:</td><td><div></div></td></tr><tr><td style="font-weight:bold;vertical-align:top;">path</td><td style="vertical-align:top;">:</td><td><div></div></td></tr><tr><td style="font-weight:bold;vertical-align:top;">secure</td><td style="vertical-align:top;">:</td><td><div></div></td></tr><tr><td style="font-weight:bold;vertical-align:top;">version</td><td style="vertical-align:top;">:</td><td><div></div></td></tr></table></div></td></tr><tr><td style="font-weight:bold;vertical-align:top;">session_id_grade5</td><td style="vertical-align:top;">:</td><td><div>1:371d2ab7-e0ed-4d8b-819e-9cdc04e418d8<table><tr><td style="font-weight:bold;vertical-align:top;">comment</td><td style="vertical-align:top;">:</td><td><div></div></td></tr><tr><td style="font-weight:bold;vertical-align:top;">domain</td><td style="vertical-align:top;">:</td><td><div></div></td></tr><tr><td style="font-weight:bold;vertical-align:top;">expires</td><td style="vertical-align:top;">:</td><td><div></div></td></tr><tr><td style="font-weight:bold;vertical-align:top;">httponly</td><td style="vertical-align:top;">:</td><td><div></div></td></tr><tr><td style="font-weight:bold;vertical-align:top;">max-age</td><td style="vertical-align:top;">:</td><td><div></div></td></tr><tr><td style="font-weight:bold;vertical-align:top;">path</td><td style="vertical-align:top;">:</td><td><div></div></td></tr><tr><td style="font-weight:bold;vertical-align:top;">secure</td><td style="vertical-align:top;">:</td><td><div></div></td></tr><tr><td style="font-weight:bold;vertical-align:top;">version</td><td style="vertical-align:top;">:</td><td><div></div></td></tr></table></div></td></tr><tr><td style="font-weight:bold;vertical-align:top;">session_id_helper</td><td style="vertical-align:top;">:</td><td><div>1:2fbc65c9-e6b1-40ed-b47f-12b6cea44acb<table><tr><td style="font-weight:bold;vertical-align:top;">comment</td><td style="vertical-align:top;">:</td><td><div></div></td></tr><tr><td style="font-weight:bold;vertical-align:top;">domain</td><td style="vertical-align:top;">:</td><td><div></div></td></tr><tr><td style="font-weight:bold;vertical-align:top;">expires</td><td style="vertical-align:top;">:</td><td><div></div></td></tr><tr><td style="font-weight:bold;vertical-align:top;">httponly</td><td style="vertical-align:top;">:</td><td><div></div></td></tr><tr><td style="font-weight:bold;vertical-align:top;">max-age</td><td style="vertical-align:top;">:</td><td><div></div></td></tr><tr><td style="font-weight:bold;vertical-align:top;">path</td><td style="vertical-align:top;">:</td><td><div></div></td></tr><tr><td style="font-weight:bold;vertical-align:top;">secure</td><td style="vertical-align:top;">:</td><td><div></div></td></tr><tr><td style="font-weight:bold;vertical-align:top;">version</td><td style="vertical-align:top;">:</td><td><div></div></td></tr></table></div></td></tr><tr><td style="font-weight:bold;vertical-align:top;">session_id_helper2</td><td style="vertical-align:top;">:</td><td><div>2:681ab9b0-59a6-4170-8453-9b74ba63a51c<table><tr><td style="font-weight:bold;vertical-align:top;">comment</td><td style="vertical-align:top;">:</td><td><div></div></td></tr><tr><td style="font-weight:bold;vertical-align:top;">domain</td><td style="vertical-align:top;">:</td><td><div></div></td></tr><tr><td style="font-weight:bold;vertical-align:top;">expires</td><td style="vertical-align:top;">:</td><td><div></div></td></tr><tr><td style="font-weight:bold;vertical-align:top;">httponly</td><td style="vertical-align:top;">:</td><td><div></div></td></tr><tr><td style="font-weight:bold;vertical-align:top;">max-age</td><td style="vertical-align:top;">:</td><td><div></div></td></tr><tr><td style="font-weight:bold;vertical-align:top;">path</td><td style="vertical-align:top;">:</td><td><div></div></td></tr><tr><td style="font-weight:bold;vertical-align:top;">secure</td><td style="vertical-align:top;">:</td><td><div></div></td></tr><tr><td style="font-weight:bold;vertical-align:top;">version</td><td style="vertical-align:top;">:</td><td><div></div></td></tr></table></div></td></tr><tr><td style="font-weight:bold;vertical-align:top;">session_id_hw4</td><td style="vertical-align:top;">:</td><td><div>1:c3e10d1f-df11-485c-8e96-e29a5362669a<table><tr><td style="font-weight:bold;vertical-align:top;">comment</td><td style="vertical-align:top;">:</td><td><div></div></td></tr><tr><td style="font-weight:bold;vertical-align:top;">domain</td><td style="vertical-align:top;">:</td><td><div></div></td></tr><tr><td style="font-weight:bold;vertical-align:top;">expires</td><td style="vertical-align:top;">:</td><td><div></div></td></tr><tr><td style="font-weight:bold;vertical-align:top;">httponly</td><td style="vertical-align:top;">:</td><td><div></div></td></tr><tr><td style="font-weight:bold;vertical-align:top;">max-age</td><td style="vertical-align:top;">:</td><td><div></div></td></tr><tr><td style="font-weight:bold;vertical-align:top;">path</td><td style="vertical-align:top;">:</td><td><div></div></td></tr><tr><td style="font-weight:bold;vertical-align:top;">secure</td><td style="vertical-align:top;">:</td><td><div></div></td></tr><tr><td style="font-weight:bold;vertical-align:top;">version</td><td style="vertical-align:top;">:</td><td><div></div></td></tr></table></div></td></tr><tr><td style="font-weight:bold;vertical-align:top;">session_id_hw4_better</td><td style="vertical-align:top;">:</td><td><div>1:5e0cf997-f746-4a66-a57b-11d20dfb393b<table><tr><td style="font-weight:bold;vertical-align:top;">comment</td><td style="vertical-align:top;">:</td><td><div></div></td></tr><tr><td style="font-weight:bold;vertical-align:top;">domain</td><td style="vertical-align:top;">:</td><td><div></div></td></tr><tr><td style="font-weight:bold;vertical-align:top;">expires</td><td style="vertical-align:top;">:</td><td><div></div></td></tr><tr><td style="font-weight:bold;vertical-align:top;">httponly</td><td style="vertical-align:top;">:</td><td><div></div></td></tr><tr><td style="font-weight:bold;vertical-align:top;">max-age</td><td style="vertical-align:top;">:</td><td><div></div></td></tr><tr><td style="font-weight:bold;vertical-align:top;">path</td><td style="vertical-align:top;">:</td><td><div></div></td></tr><tr><td style="font-weight:bold;vertical-align:top;">secure</td><td style="vertical-align:top;">:</td><td><div></div></td></tr><tr><td style="font-weight:bold;vertical-align:top;">version</td><td style="vertical-align:top;">:</td><td><div></div></td></tr></table></div></td></tr><tr><td style="font-weight:bold;vertical-align:top;">session_id_hw4_starter</td><td style="vertical-align:top;">:</td><td><div>1:4b3d7162-52a9-4991-9108-beb8636a234b<table><tr><td style="font-weight:bold;vertical-align:top;">comment</td><td style="vertical-align:top;">:</td><td><div></div></td></tr><tr><td style="font-weight:bold;vertical-align:top;">domain</td><td style="vertical-align:top;">:</td><td><div></div></td></tr><tr><td style="font-weight:bold;vertical-align:top;">expires</td><td style="vertical-align:top;">:</td><td><div></div></td></tr><tr><td style="font-weight:bold;vertical-align:top;">httponly</td><td style="vertical-align:top;">:</td><td><div></div></td></tr><tr><td style="font-weight:bold;vertical-align:top;">max-age</td><td style="vertical-align:top;">:</td><td><div></div></td></tr><tr><td style="font-weight:bold;vertical-align:top;">path</td><td style="vertical-align:top;">:</td><td><div></div></td></tr><tr><td style="font-weight:bold;vertical-align:top;">secure</td><td style="vertical-align:top;">:</td><td><div></div></td></tr><tr><td style="font-weight:bold;vertical-align:top;">version</td><td style="vertical-align:top;">:</td><td><div></div></td></tr></table></div></td></tr><tr><td style="font-weight:bold;vertical-align:top;">session_id_hw5</td><td style="vertical-align:top;">:</td><td><div>1:c7f3f258-38e7-4d76-88fe-14205fbacaa2<table><tr><td style="font-weight:bold;vertical-align:top;">comment</td><td style="vertical-align:top;">:</td><td><div></div></td></tr><tr><td style="font-weight:bold;vertical-align:top;">domain</td><td style="vertical-align:top;">:</td><td><div></div></td></tr><tr><td style="font-weight:bold;vertical-align:top;">expires</td><td style="vertical-align:top;">:</td><td><div></div></td></tr><tr><td style="font-weight:bold;vertical-align:top;">httponly</td><td style="vertical-align:top;">:</td><td><div></div></td></tr><tr><td style="font-weight:bold;vertical-align:top;">max-age</td><td style="vertical-align:top;">:</td><td><div></div></td></tr><tr><td style="font-weight:bold;vertical-align:top;">path</td><td style="vertical-align:top;">:</td><td><div></div></td></tr><tr><td style="font-weight:bold;vertical-align:top;">secure</td><td style="vertical-align:top;">:</td><td><div></div></td></tr><tr><td style="font-weight:bold;vertical-align:top;">version</td><td style="vertical-align:top;">:</td><td><div></div></td></tr></table></div></td></tr><tr><td style="font-weight:bold;vertical-align:top;">session_id_otherhelp</td><td style="vertical-align:top;">:</td><td><div>1:c8a00ef2-db9d-404f-9b97-f96dfa603b01<table><tr><td style="font-weight:bold;vertical-align:top;">comment</td><td style="vertical-align:top;">:</td><td><div></div></td></tr><tr><td style="font-weight:bold;vertical-align:top;">domain</td><td style="vertical-align:top;">:</td><td><div></div></td></tr><tr><td style="font-weight:bold;vertical-align:top;">expires</td><td style="vertical-align:top;">:</td><td><div></div></td></tr><tr><td style="font-weight:bold;vertical-align:top;">httponly</td><td style="vertical-align:top;">:</td><td><div></div></td></tr><tr><td style="font-weight:bold;vertical-align:top;">max-age</td><td style="vertical-align:top;">:</td><td><div></div></td></tr><tr><td style="font-weight:bold;vertical-align:top;">path</td><td style="vertical-align:top;">:</td><td><div></div></td></tr><tr><td style="font-weight:bold;vertical-align:top;">secure</td><td style="vertical-align:top;">:</td><td><div></div></td></tr><tr><td style="font-weight:bold;vertical-align:top;">version</td><td style="vertical-align:top;">:</td><td><div></div></td></tr></table></div></td></tr><tr><td style="font-weight:bold;vertical-align:top;">session_id_pics</td><td style="vertical-align:top;">:</td><td><div>2:cd85bd42-3251-4858-9672-9ac7e4aa53af<table><tr><td style="font-weight:bold;vertical-align:top;">comment</td><td style="vertical-align:top;">:</td><td><div></div></td></tr><tr><td style="font-weight:bold;vertical-align:top;">domain</td><td style="vertical-align:top;">:</td><td><div></div></td></tr><tr><td style="font-weight:bold;vertical-align:top;">expires</td><td style="vertical-align:top;">:</td><td><div></div></td></tr><tr><td style="font-weight:bold;vertical-align:top;">httponly</td><td style="vertical-align:top;">:</td><td><div></div></td></tr><tr><td style="font-weight:bold;vertical-align:top;">max-age</td><td style="vertical-align:top;">:</td><td><div></div></td></tr><tr><td style="font-weight:bold;vertical-align:top;">path</td><td style="vertical-align:top;">:</td><td><div></div></td></tr><tr><td style="font-weight:bold;vertical-align:top;">secure</td><td style="vertical-align:top;">:</td><td><div></div></td></tr><tr><td style="font-weight:bold;vertical-align:top;">version</td><td style="vertical-align:top;">:</td><td><div></div></td></tr></table></div></td></tr><tr><td style="font-weight:bold;vertical-align:top;">session_id_review3</td><td style="vertical-align:top;">:</td><td><div>5:575a763b-3b84-4be9-9746-16e5ea90baec<table><tr><td style="font-weight:bold;vertical-align:top;">comment</td><td style="vertical-align:top;">:</td><td><div></div></td></tr><tr><td style="font-weight:bold;vertical-align:top;">domain</td><td style="vertical-align:top;">:</td><td><div></div></td></tr><tr><td style="font-weight:bold;vertical-align:top;">expires</td><td style="vertical-align:top;">:</td><td><div></div></td></tr><tr><td style="font-weight:bold;vertical-align:top;">httponly</td><td style="vertical-align:top;">:</td><td><div></div></td></tr><tr><td style="font-weight:bold;vertical-align:top;">max-age</td><td style="vertical-align:top;">:</td><td><div></div></td></tr><tr><td style="font-weight:bold;vertical-align:top;">path</td><td style="vertical-align:top;">:</td><td><div></div></td></tr><tr><td style="font-weight:bold;vertical-align:top;">secure</td><td style="vertical-align:top;">:</td><td><div></div></td></tr><tr><td style="font-weight:bold;vertical-align:top;">version</td><td style="vertical-align:top;">:</td><td><div></div></td></tr></table></div></td></tr><tr><td style="font-weight:bold;vertical-align:top;">session_id_review5</td><td style="vertical-align:top;">:</td><td><div>6:c28626cd-85c9-41d8-9106-ac57fef07575<table><tr><td style="font-weight:bold;vertical-align:top;">comment</td><td style="vertical-align:top;">:</td><td><div></div></td></tr><tr><td style="font-weight:bold;vertical-align:top;">domain</td><td style="vertical-align:top;">:</td><td><div></div></td></tr><tr><td style="font-weight:bold;vertical-align:top;">expires</td><td style="vertical-align:top;">:</td><td><div></div></td></tr><tr><td style="font-weight:bold;vertical-align:top;">httponly</td><td style="vertical-align:top;">:</td><td><div></div></td></tr><tr><td style="font-weight:bold;vertical-align:top;">max-age</td><td style="vertical-align:top;">:</td><td><div></div></td></tr><tr><td style="font-weight:bold;vertical-align:top;">path</td><td style="vertical-align:top;">:</td><td><div></div></td></tr><tr><td style="font-weight:bold;vertical-align:top;">secure</td><td style="vertical-align:top;">:</td><td><div></div></td></tr><tr><td style="font-weight:bold;vertical-align:top;">version</td><td style="vertical-align:top;">:</td><td><div></div></td></tr></table></div></td></tr><tr><td style="font-weight:bold;vertical-align:top;">session_id_start</td><td style="vertical-align:top;">:</td><td><div>9:ab5b2845-98a0-41d3-aaa5-220180202475<table><tr><td style="font-weight:bold;vertical-align:top;">comment</td><td style="vertical-align:top;">:</td><td><div></div></td></tr><tr><td style="font-weight:bold;vertical-align:top;">domain</td><td style="vertical-align:top;">:</td><td><div></div></td></tr><tr><td style="font-weight:bold;vertical-align:top;">expires</td><td style="vertical-align:top;">:</td><td><div></div></td></tr><tr><td style="font-weight:bold;vertical-align:top;">httponly</td><td style="vertical-align:top;">:</td><td><div></div></td></tr><tr><td style="font-weight:bold;vertical-align:top;">max-age</td><td style="vertical-align:top;">:</td><td><div></div></td></tr><tr><td style="font-weight:bold;vertical-align:top;">path</td><td style="vertical-align:top;">:</td><td><div></div></td></tr><tr><td style="font-weight:bold;vertical-align:top;">secure</td><td style="vertical-align:top;">:</td><td><div></div></td></tr><tr><td style="font-weight:bold;vertical-align:top;">version</td><td style="vertical-align:top;">:</td><td><div></div></td></tr></table></div></td></tr><tr><td style="font-weight:bold;vertical-align:top;">session_id_startercode</td><td style="vertical-align:top;">:</td><td><div>1:427b513b-4de9-4cf1-ba11-647d62dc51b9<table><tr><td style="font-weight:bold;vertical-align:top;">comment</td><td style="vertical-align:top;">:</td><td><div></div></td></tr><tr><td style="font-weight:bold;vertical-align:top;">domain</td><td style="vertical-align:top;">:</td><td><div></div></td></tr><tr><td style="font-weight:bold;vertical-align:top;">expires</td><td style="vertical-align:top;">:</td><td><div></div></td></tr><tr><td style="font-weight:bold;vertical-align:top;">httponly</td><td style="vertical-align:top;">:</td><td><div></div></td></tr><tr><td style="font-weight:bold;vertical-align:top;">max-age</td><td style="vertical-align:top;">:</td><td><div></div></td></tr><tr><td style="font-weight:bold;vertical-align:top;">path</td><td style="vertical-align:top;">:</td><td><div></div></td></tr><tr><td style="font-weight:bold;vertical-align:top;">secure</td><td style="vertical-align:top;">:</td><td><div></div></td></tr><tr><td style="font-weight:bold;vertical-align:top;">version</td><td style="vertical-align:top;">:</td><td><div></div></td></tr></table></div></td></tr><tr><td style="font-weight:bold;vertical-align:top;">session_id_test</td><td style="vertical-align:top;">:</td><td><div>1:cbf9d63a-dd28-404d-b7e1-25017a53ad89<table><tr><td style="font-weight:bold;vertical-align:top;">comment</td><td style="vertical-align:top;">:</td><td><div></div></td></tr><tr><td style="font-weight:bold;vertical-align:top;">domain</td><td style="vertical-align:top;">:</td><td><div></div></td></tr><tr><td style="font-weight:bold;vertical-align:top;">expires</td><td style="vertical-align:top;">:</td><td><div></div></td></tr><tr><td style="font-weight:bold;vertical-align:top;">httponly</td><td style="vertical-align:top;">:</td><td><div></div></td></tr><tr><td style="font-weight:bold;vertical-align:top;">max-age</td><td style="vertical-align:top;">:</td><td><div></div></td></tr><tr><td style="font-weight:bold;vertical-align:top;">path</td><td style="vertical-align:top;">:</td><td><div></div></td></tr><tr><td style="font-weight:bold;vertical-align:top;">secure</td><td style="vertical-align:top;">:</td><td><div></div></td></tr><tr><td style="font-weight:bold;vertical-align:top;">version</td><td style="vertical-align:top;">:</td><td><div></div></td></tr></table></div></td></tr><tr><td style="font-weight:bold;vertical-align:top;">session_id_web2py_start_2016</td><td style="vertical-align:top;">:</td><td><div>4:8eeb51f6-61f1-4ac4-aeb8-a0c985f944a4<table><tr><td style="font-weight:bold;vertical-align:top;">comment</td><td style="vertical-align:top;">:</td><td><div></div></td></tr><tr><td style="font-weight:bold;vertical-align:top;">domain</td><td style="vertical-align:top;">:</td><td><div></div></td></tr><tr><td style="font-weight:bold;vertical-align:top;">expires</td><td style="vertical-align:top;">:</td><td><div></div></td></tr><tr><td style="font-weight:bold;vertical-align:top;">httponly</td><td style="vertical-align:top;">:</td><td><div></div></td></tr><tr><td style="font-weight:bold;vertical-align:top;">max-age</td><td style="vertical-align:top;">:</td><td><div></div></td></tr><tr><td style="font-weight:bold;vertical-align:top;">path</td><td style="vertical-align:top;">:</td><td><div></div></td></tr><tr><td style="font-weight:bold;vertical-align:top;">secure</td><td style="vertical-align:top;">:</td><td><div></div></td></tr><tr><td style="font-weight:bold;vertical-align:top;">version</td><td style="vertical-align:top;">:</td><td><div></div></td></tr></table></div></td></tr><tr><td style="font-weight:bold;vertical-align:top;">session_id_welcome</td><td style="vertical-align:top;">:</td><td><div>127.0.0.1-eb2c08e4-b3da-423f-8e7e-eed1ec1b0d10<table><tr><td style="font-weight:bold;vertical-align:top;">comment</td><td style="vertical-align:top;">:</td><td><div></div></td></tr><tr><td style="font-weight:bold;vertical-align:top;">domain</td><td style="vertical-align:top;">:</td><td><div></div></td></tr><tr><td style="font-weight:bold;vertical-align:top;">expires</td><td style="vertical-align:top;">:</td><td><div></div></td></tr><tr><td style="font-weight:bold;vertical-align:top;">httponly</td><td style="vertical-align:top;">:</td><td><div></div></td></tr><tr><td style="font-weight:bold;vertical-align:top;">max-age</td><td style="vertical-align:top;">:</td><td><div></div></td></tr><tr><td style="font-weight:bold;vertical-align:top;">path</td><td style="vertical-align:top;">:</td><td><div></div></td></tr><tr><td style="font-weight:bold;vertical-align:top;">secure</td><td style="vertical-align:top;">:</td><td><div></div></td></tr><tr><td style="font-weight:bold;vertical-align:top;">version</td><td style="vertical-align:top;">:</td><td><div></div></td></tr></table></div></td></tr></table></div></td></tr><tr><td style="font-weight:bold;vertical-align:top;">env</td><td style="vertical-align:top;">:</td><td><div><table><tr><td style="font-weight:bold;vertical-align:top;">CONTENT_LENGTH</td><td style="vertical-align:top;">:</td><td><div>1572</div></td></tr><tr><td style="font-weight:bold;vertical-align:top;">CONTENT_TYPE</td><td style="vertical-align:top;">:</td><td><div>application/x-www-form-urlencoded; charset=UTF-8</div></td></tr><tr><td style="font-weight:bold;vertical-align:top;">HTTP_ACCEPT</td><td style="vertical-align:top;">:</td><td><div>*/*</div></td></tr><tr><td style="font-weight:bold;vertical-align:top;">HTTP_ACCEPT_ENCODING</td><td style="vertical-align:top;">:</td><td><div>gzip, deflate, br</div></td></tr><tr><td style="font-weight:bold;vertical-align:top;">HTTP_ACCEPT_LANGUAGE</td><td style="vertical-align:top;">:</td><td><div>en-US,en;q=0.9</div></td></tr><tr><td style="font-weight:bold;vertical-align:top;">HTTP_CONNECTION</td><td style="vertical-align:top;">:</td><td><div>keep-alive</div></td></tr><tr><td style="font-weight:bold;vertical-align:top;">HTTP_CONTENT_LENGTH</td><td style="vertical-align:top;">:</td><td><div>1572</div></td></tr><tr><td style="font-weight:bold;vertical-align:top;">HTTP_CONTENT_TYPE</td><td style="vertical-align:top;">:</td><td><div>application/x-www-form-urlencoded; charset=UTF-8</div></td></tr><tr><td style="font-weight:bold;vertical-align:top;">HTTP_COOKIE</td><td style="vertical-align:top;">:</td><td><div>session_id_admin=127.0.0.1-c6bcad5e-790f-4509-9d20-9d70b8daf127; session_id_start=&quot;9:ab5b2845-98a0-41d3-aaa5-220180202475&quot;; session_id_web2py_start_2016=&quot;4:8eeb51f6-61f1-4ac4-aeb8-a0c985f944a4&quot;; session_id_startercode=&quot;1:427b513b-4de9-4cf1-ba11-647d62dc51b9&quot;; session_id_review3=&quot;5:575a763b-3b84-4be9-9746-16e5ea90baec&quot;; session_id_review5=&quot;6:c28626cd-85c9-41d8-9106-ac57fef07575&quot;; session_id_daniel=&quot;1:fb76874a-1321-4928-a6e0-a6273c164e2d&quot;; session_id_hw4_starter=&quot;1:4b3d7162-52a9-4991-9108-beb8636a234b&quot;; session_id_hw4_better=&quot;1:5e0cf997-f746-4a66-a57b-11d20dfb393b&quot;; session_id_helper=&quot;1:2fbc65c9-e6b1-40ed-b47f-12b6cea44acb&quot;; session_id_pics=&quot;2:cd85bd42-3251-4858-9672-9ac7e4aa53af&quot;; session_id_otherhelp=&quot;1:c8a00ef2-db9d-404f-9b97-f96dfa603b01&quot;; session_id_hw4=&quot;1:c3e10d1f-df11-485c-8e96-e29a5362669a&quot;; session_id_test=&quot;1:cbf9d63a-dd28-404d-b7e1-25017a53ad89&quot;; session_id_check=&quot;2:4e4e316c-3aa7-4e3b-b054-fbb6c6d41c20&quot;; session_id_grade2=&quot;1:d0e3120f-90e3-4a1e-9d8e-af14093d9156&quot;; session_id_grade3=&quot;1:3dc0df58-d68d-4c52-b71f-900288c5e7da&quot;; session_id_grade4=&quot;1:54603504-243b-47e2-ac7d-5421ba114a9d&quot;; session_id_grade5=&quot;1:371d2ab7-e0ed-4d8b-819e-9cdc04e418d8&quot;; session_id_helper2=&quot;2:681ab9b0-59a6-4170-8453-9b74ba63a51c&quot;; session_id_hw5=&quot;1:c7f3f258-38e7-4d76-88fe-14205fbacaa2&quot;; session_id_welcome=127.0.0.1-eb2c08e4-b3da-423f-8e7e-eed1ec1b0d10; session_id_grade1=&quot;1:46c7c6fc-8358-498f-8783-0875623e1786&quot;</div></td></tr><tr><td style="font-weight:bold;vertical-align:top;">HTTP_DNT</td><td style="vertical-align:top;">:</td><td><div>1</div></td></tr><tr><td style="font-weight:bold;vertical-align:top;">HTTP_HOST</td><td style="vertical-align:top;">:</td><td><div>127.0.0.1:8000</div></td></tr><tr><td style="font-weight:bold;vertical-align:top;">HTTP_ORIGIN</td><td style="vertical-align:top;">:</td><td><div>http://127.0.0.1:8000</div></td></tr><tr><td style="font-weight:bold;vertical-align:top;">HTTP_REFERER</td><td style="vertical-align:top;">:</td><td><div>http://127.0.0.1:8000/grade1/default/index</div></td></tr><tr><td style="font-weight:bold;vertical-align:top;">HTTP_USER_AGENT</td><td style="vertical-align:top;">:</td><td><div>Mozilla/5.0 (Windows NT 10.0; Win64; x64) AppleWebKit/537.36 (KHTML, like Gecko) Chrome/66.0.3359.181 Safari/537.36</div></td></tr><tr><td style="font-weight:bold;vertical-align:top;">HTTP_X_REQUESTED_WITH</td><td style="vertical-align:top;">:</td><td><div>XMLHttpRequest</div></td></tr><tr><td style="font-weight:bold;vertical-align:top;">PATH_INFO</td><td style="vertical-align:top;">:</td><td><div>/grade1/default/purchase</div></td></tr><tr><td style="font-weight:bold;vertical-align:top;">QUERY_STRING</td><td style="vertical-align:top;">:</td><td><div>_signature=5aca155d3efa45ef5c78d2119c6f3af967a29f74</div></td></tr><tr><td style="font-weight:bold;vertical-align:top;">REMOTE_ADDR</td><td style="vertical-align:top;">:</td><td><div>127.0.0.1</div></td></tr><tr><td style="font-weight:bold;vertical-align:top;">REMOTE_PORT</td><td style="vertical-align:top;">:</td><td><div>53748</div></td></tr><tr><td style="font-weight:bold;vertical-align:top;">REQUEST_METHOD</td><td style="vertical-align:top;">:</td><td><div>POST</div></td></tr><tr><td style="font-weight:bold;vertical-align:top;">SCRIPT_NAME</td><td style="vertical-align:top;">:</td><td><div></div></td></tr><tr><td style="font-weight:bold;vertical-align:top;">SERVER_NAME</td><td style="vertical-align:top;">:</td><td><div>DESKTOP-ET618DR</div></td></tr><tr><td style="font-weight:bold;vertical-align:top;">SERVER_PORT</td><td style="vertical-align:top;">:</td><td><div>8000</div></td></tr><tr><td style="font-weight:bold;vertical-align:top;">SERVER_PROTOCOL</td><td style="vertical-align:top;">:</td><td><div>HTTP/1.1</div></td></tr><tr><td style="font-weight:bold;vertical-align:top;">SERVER_SOFTWARE</td><td style="vertical-align:top;">:</td><td><div>Rocket 1.2.6</div></td></tr><tr><td style="font-weight:bold;vertical-align:top;">app_folders</td><td style="vertical-align:top;">:</td><td><div>set([&quot;C:\\\\Users\\\\Mike&#x27;s PC\\\\Documents\\\\Computer Science\\\\cmps 183\\\\web2py\\\\applications\\\\admin\\\\&quot;, &quot;C:\\\\Users\\\\Mike&#x27;s PC\\\\Documents\\\\Computer Science\\\\cmps 183\\\\web2py\\\\applications\\\\welcome\\\\&quot;, &quot;C:\\\\Users\\\\Mike&#x27;s PC\\\\Documents\\\\Computer Science\\\\cmps 183\\\\web2py\\\\applications\\\\grade1\\\\&quot;])</div></td></tr><tr><td style="font-weight:bold;vertical-align:top;">applications_parent</td><td style="vertical-align:top;">:</td><td><div>C:\\Users\\Mike&#x27;s PC\\Documents\\Computer Science\\cmps 183\\web2py</div></td></tr><tr><td style="font-weight:bold;vertical-align:top;">cmd_args</td><td style="vertical-align:top;">:</td><td><div><table></table></div></td></tr><tr><td style="font-weight:bold;vertical-align:top;">cmd_options</td><td style="vertical-align:top;">:</td><td><div>&lt;Values at 0x443c088: {&#x27;verbose&#x27;: False, &#x27;ip&#x27;: &#x27;127.0.0.1&#x27;, &#x27;debuglevel&#x27;: 30, &#x27;with_scheduler&#x27;: False, &#x27;shutdown_timeout&#x27;: 5, &#x27;taskbar&#x27;: False, &#x27;with_coverage&#x27;: False, &#x27;pid_filename&#x27;: &#x27;httpserver.pid&#x27;, &#x27;maxthreads&#x27;: None, &#x27;softcron&#x27;: False, &#x27;server_name&#x27;: &#x27;DESKTOP-ET618DR&#x27;, &#x27;bpython&#x27;: False, &#x27;nogui&#x27;: False, &#x27;port&#x27;: 8000, &#x27;print_errors&#x27;: True, &#x27;extcron&#x27;: False, &#x27;runcron&#x27;: False, &#x27;run_system_tests&#x27;: False, &#x27;test&#x27;: None, &#x27;folder&#x27;: &quot;C:\\\\Users\\\\Mike&#x27;s PC\\\\Documents\\\\Computer Science\\\\cmps 183\\\\web2py&quot;, &#x27;config&#x27;: &#x27;&#x27;, &#x27;minthreads&#x27;: None, &#x27;shell&#x27;: None, &#x27;run&#x27;: &#x27;&#x27;, &#x27;log_filename&#x27;: &#x27;httpserver.log&#x27;, &#x27;profiler_dir&#x27;: None, &#x27;args&#x27;: [&#x27;&#x27;], &#x27;socket_timeout&#x27;: 5, &#x27;ssl_ca_certificate&#x27;: None, &#x27;scheduler&#x27;: None, &#x27;interfaces&#x27;: None, &#x27;ssl_private_key&#x27;: &#x27;&#x27;, &#x27;gae&#x27;: None, &#x27;password&#x27;: &#x27;******&#x27;, &#x27;request_queue_size&#x27;: 5, &#x27;ssl_certificate&#x27;: &#x27;&#x27;, &#x27;cronjob&#x27;: False, &#x27;numthreads&#x27;: None, &#x27;quiet&#x27;: False, &#x27;import_models&#x27;: False, &#x27;timeout&#x27;: 10, &#x27;plain&#x27;: False, &#x27;nobanner&#x27;: False}&gt;</div></td></tr><tr><td style="font-weight:bold;vertical-align:top;">content_length</td><td style="vertical-align:top;">:</td><td><div>1572</div></td></tr><tr><td style="font-weight:bold;vertical-align:top;">content_type</td><td style="vertical-align:top;">:</td><td><div>application/x-www-form-urlencoded; charset=UTF-8</div></td></tr><tr><td style="font-weight:bold;vertical-align:top;">db_sessions</td><td style="vertical-align:top;">:</td><td><div>set([&#x27;grade1&#x27;])</div></td></tr><tr><td style="font-weight:bold;vertical-align:top;">debugging</td><td style="vertical-align:top;">:</td><td><div>False</div></td></tr><tr><td style="font-weight:bold;vertical-align:top;">gluon_parent</td><td style="vertical-align:top;">:</td><td><div>C:\\Users\\Mike&#x27;s PC\\Documents\\Computer Science\\cmps 183\\web2py</div></td></tr><tr><td style="font-weight:bold;vertical-align:top;">http_accept</td><td style="vertical-align:top;">:</td><td><div>*/*</div></td></tr><tr><td style="font-weight:bold;vertical-align:top;">http_accept_encoding</td><td style="vertical-align:top;">:</td><td><div>gzip, deflate, br</div></td></tr><tr><td style="font-weight:bold;vertical-align:top;">http_accept_language</td><td style="vertical-align:top;">:</td><td><div>en-US,en;q=0.9</div></td></tr><tr><td style="font-weight:bold;vertical-align:top;">http_connection</td><td style="vertical-align:top;">:</td><td><div>keep-alive</div></td></tr><tr><td style="font-weight:bold;vertical-align:top;">http_content_length</td><td style="vertical-align:top;">:</td><td><div>1572</div></td></tr><tr><td style="font-weight:bold;vertical-align:top;">http_content_type</td><td style="vertical-align:top;">:</td><td><div>application/x-www-form-urlencoded; charset=UTF-8</div></td></tr><tr><td style="font-weight:bold;vertical-align:top;">http_cookie</td><td style="vertical-align:top;">:</td><td><div>session_id_admin=127.0.0.1-c6bcad5e-790f-4509-9d20-9d70b8daf127; session_id_start=&quot;9:ab5b2845-98a0-41d3-aaa5-220180202475&quot;; session_id_web2py_start_2016=&quot;4:8eeb51f6-61f1-4ac4-aeb8-a0c985f944a4&quot;; session_id_startercode=&quot;1:427b513b-4de9-4cf1-ba11-647d62dc51b9&quot;; session_id_review3=&quot;5:575a763b-3b84-4be9-9746-16e5ea90baec&quot;; session_id_review5=&quot;6:c28626cd-85c9-41d8-9106-ac57fef07575&quot;; session_id_daniel=&quot;1:fb76874a-1321-4928-a6e0-a6273c164e2d&quot;; session_id_hw4_starter=&quot;1:4b3d7162-52a9-4991-9108-beb8636a234b&quot;; session_id_hw4_better=&quot;1:5e0cf997-f746-4a66-a57b-11d20dfb393b&quot;; session_id_helper=&quot;1:2fbc65c9-e6b1-40ed-b47f-12b6cea44acb&quot;; session_id_pics=&quot;2:cd85bd42-3251-4858-9672-9ac7e4aa53af&quot;; session_id_otherhelp=&quot;1:c8a00ef2-db9d-404f-9b97-f96dfa603b01&quot;; session_id_hw4=&quot;1:c3e10d1f-df11-485c-8e96-e29a5362669a&quot;; session_id_test=&quot;1:cbf9d63a-dd28-404d-b7e1-25017a53ad89&quot;; session_id_check=&quot;2:4e4e316c-3aa7-4e3b-b054-fbb6c6d41c20&quot;; session_id_grade2=&quot;1:d0e3120f-90e3-4a1e-9d8e-af14093d9156&quot;; session_id_grade3=&quot;1:3dc0df58-d68d-4c52-b71f-900288c5e7da&quot;; session_id_grade4=&quot;1:54603504-243b-47e2-ac7d-5421ba114a9d&quot;; session_id_grade5=&quot;1:371d2ab7-e0ed-4d8b-819e-9cdc04e418d8&quot;; session_id_helper2=&quot;2:681ab9b0-59a6-4170-8453-9b74ba63a51c&quot;; session_id_hw5=&quot;1:c7f3f258-38e7-4d76-88fe-14205fbacaa2&quot;; session_id_welcome=127.0.0.1-eb2c08e4-b3da-423f-8e7e-eed1ec1b0d10; session_id_grade1=&quot;1:46c7c6fc-8358-498f-8783-0875623e1786&quot;</div></td></tr><tr><td style="font-weight:bold;vertical-align:top;">http_dnt</td><td style="vertical-align:top;">:</td><td><div>1</div></td></tr><tr><td style="font-weight:bold;vertical-align:top;">http_host</td><td style="vertical-align:top;">:</td><td><div>127.0.0.1:8000</div></td></tr><tr><td style="font-weight:bold;vertical-align:top;">http_origin</td><td style="vertical-align:top;">:</td><td><div>http://127.0.0.1:8000</div></td></tr><tr><td style="font-weight:bold;vertical-align:top;">http_referer</td><td style="vertical-align:top;">:</td><td><div>http://127.0.0.1:8000/grade1/default/index</div></td></tr><tr><td style="font-weight:bold;vertical-align:top;">http_user_agent</td><td style="vertical-align:top;">:</td><td><div>Mozilla/5.0 (Windows NT 10.0; Win64; x64) AppleWebKit/537.36 (KHTML, like Gecko) Chrome/66.0.3359.181 Safari/537.36</div></td></tr><tr><td style="font-weight:bold;vertical-align:top;">http_x_requested_with</td><td style="vertical-align:top;">:</td><td><div>XMLHttpRequest</div></td></tr><tr><td style="font-weight:bold;vertical-align:top;">is_jython</td><td style="vertical-align:top;">:</td><td><div>False</div></td></tr><tr><td style="font-weight:bold;vertical-align:top;">is_py2</td><td style="vertical-align:top;">:</td><td><div>True</div></td></tr><tr><td style="font-weight:bold;vertical-align:top;">is_pypy</td><td style="vertical-align:top;">:</td><td><div>False</div></td></tr><tr><td style="font-weight:bold;vertical-align:top;">is_source</td><td style="vertical-align:top;">:</td><td><div>True</div></td></tr><tr><td style="font-weight:bold;vertical-align:top;">local_hosts</td><td style="vertical-align:top;">:</td><td><div><table><tr><td><div>fe80::1c43:41e6:fedb:f337%8</div></td></tr><tr><td><div>::ffff:127.0.0.1</div></td></tr><tr><td><div>::1</div></td></tr><tr><td><div>192.168.0.110</div></td></tr><tr><td><div>DESKTOP-ET618DR</div></td></tr><tr><td><div>127.0.0.1</div></td></tr></table></div></td></tr><tr><td style="font-weight:bold;vertical-align:top;">path_info</td><td style="vertical-align:top;">:</td><td><div>/grade1/default/purchase</div></td></tr><tr><td style="font-weight:bold;vertical-align:top;">query_string</td><td style="vertical-align:top;">:</td><td><div>_signature=5aca155d3efa45ef5c78d2119c6f3af967a29f74</div></td></tr><tr><td style="font-weight:bold;vertical-align:top;">remote_addr</td><td style="vertical-align:top;">:</td><td><div>127.0.0.1</div></td></tr><tr><td style="font-weight:bold;vertical-align:top;">remote_port</td><td style="vertical-align:top;">:</td><td><div>53748</div></td></tr><tr><td style="font-weight:bold;vertical-align:top;">request_method</td><td style="vertical-align:top;">:</td><td><div>POST</div></td></tr><tr><td style="font-weight:bold;vertical-align:top;">request_uri</td><td style="vertical-align:top;">:</td><td><div>/grade1/default/purchase?_signature=5aca155d3efa45ef5c78d2119c6f3af967a29f74</div></td></tr><tr><td style="font-weight:bold;vertical-align:top;">script_name</td><td style="vertical-align:top;">:</td><td><div></div></td></tr><tr><td style="font-weight:bold;vertical-align:top;">server_name</td><td style="vertical-align:top;">:</td><td><div>DESKTOP-ET618DR</div></td></tr><tr><td style="font-weight:bold;vertical-align:top;">server_port</td><td style="vertical-align:top;">:</td><td><div>8000</div></td></tr><tr><td style="font-weight:bold;vertical-align:top;">server_protocol</td><td style="vertical-align:top;">:</td><td><div>HTTP/1.1</div></td></tr><tr><td style="font-weight:bold;vertical-align:top;">server_software</td><td style="vertical-align:top;">:</td><td><div>Rocket 1.2.6</div></td></tr><tr><td style="font-weight:bold;vertical-align:top;">web2py_path</td><td style="vertical-align:top;">:</td><td><div>C:\\Users\\Mike&#x27;s PC\\Documents\\Computer Science\\cmps 183\\web2py</div></td></tr><tr><td style="font-weight:bold;vertical-align:top;">web2py_version</td><td style="vertical-align:top;">:</td><td><div>2.16.1-stable+timestamp.2017.11.14.05.54.25</div></td></tr><tr><td style="font-weight:bold;vertical-align:top;">wsgi.errors</td><td style="vertical-align:top;">:</td><td><div>&lt;open file &#x27;&lt;stderr&gt;&#x27;, mode &#x27;w&#x27; at 0x0000000002A8B150&gt;</div></td></tr><tr><td style="font-weight:bold;vertical-align:top;">wsgi.file_wrapper</td><td style="vertical-align:top;">:</td><td><div>&lt;class wsgiref.util.FileWrapper at 0x000000000451D888&gt;</div></td></tr><tr><td style="font-weight:bold;vertical-align:top;">wsgi.input</td><td style="vertical-align:top;">:</td><td><div>&lt;socket._fileobject object at 0x00000000052082A0&gt;</div></td></tr><tr><td style="font-weight:bold;vertical-align:top;">wsgi.multiprocess</td><td style="vertical-align:top;">:</td><td><div>False</div></td></tr><tr><td style="font-weight:bold;vertical-align:top;">wsgi.multithread</td><td style="vertical-align:top;">:</td><td><div>True</div></td></tr><tr><td style="font-weight:bold;vertical-align:top;">wsgi.run_once</td><td style="vertical-align:top;">:</td><td><div>False</div></td></tr><tr><td style="font-weight:bold;vertical-align:top;">wsgi.url_scheme</td><td style="vertical-align:top;">:</td><td><div>http</div></td></tr><tr><td style="font-weight:bold;vertical-align:top;">wsgi.version</td><td style="vertical-align:top;">:</td><td><div><table><tr><td><div>1</div></td></tr><tr><td><div>0</div></td></tr></table></div></td></tr><tr><td style="font-weight:bold;vertical-align:top;">wsgi_errors</td><td style="vertical-align:top;">:</td><td><div>&lt;open file &#x27;&lt;stderr&gt;&#x27;, mode &#x27;w&#x27; at 0x0000000002A8B150&gt;</div></td></tr><tr><td style="font-weight:bold;vertical-align:top;">wsgi_file_wrapper</td><td style="vertical-align:top;">:</td><td><div>&lt;class wsgiref.util.FileWrapper at 0x000000000451D888&gt;</div></td></tr><tr><td style="font-weight:bold;vertical-align:top;">wsgi_input</td><td style="vertical-align:top;">:</td><td><div>&lt;socket._fileobject object at 0x00000000052082A0&gt;</div></td></tr><tr><td style="font-weight:bold;vertical-align:top;">wsgi_multiprocess</td><td style="vertical-align:top;">:</td><td><div>False</div></td></tr><tr><td style="font-weight:bold;vertical-align:top;">wsgi_multithread</td><td style="vertical-align:top;">:</td><td><div>True</div></td></tr><tr><td style="font-weight:bold;vertical-align:top;">wsgi_run_once</td><td style="vertical-align:top;">:</td><td><div>False</div></td></tr><tr><td style="font-weight:bold;vertical-align:top;">wsgi_url_scheme</td><td style="vertical-align:top;">:</td><td><div>http</div></td></tr><tr><td style="font-weight:bold;vertical-align:top;">wsgi_version</td><td style="vertical-align:top;">:</td><td><div><table><tr><td><div>1</div></td></tr><tr><td><div>0</div></td></tr></table></div></td></tr></table></div></td></tr><tr><td style="font-weight:bold;vertical-align:top;">extension</td><td style="vertical-align:top;">:</td><td><div>html</div></td></tr><tr><td style="font-weight:bold;vertical-align:top;">folder</td><td style="vertical-align:top;">:</td><td><div>C:\\Users\\Mike&#x27;s PC\\Documents\\Computer Science\\cmps 183\\web2py\\applications\\grade1\\</div></td></tr><tr><td style="font-weight:bold;vertical-align:top;">function</td><td style="vertical-align:top;">:</td><td><div>purchase</div></td></tr><tr><td style="font-weight:bold;vertical-align:top;">global_settings</td><td style="vertical-align:top;">:</td><td><div><table><tr><td style="font-weight:bold;vertical-align:top;">app_folders</td><td style="vertical-align:top;">:</td><td><div>set([&quot;C:\\\\Users\\\\Mike&#x27;s PC\\\\Documents\\\\Computer Science\\\\cmps 183\\\\web2py\\\\applications\\\\admin\\\\&quot;, &quot;C:\\\\Users\\\\Mike&#x27;s PC\\\\Documents\\\\Computer Science\\\\cmps 183\\\\web2py\\\\applications\\\\welcome\\\\&quot;, &quot;C:\\\\Users\\\\Mike&#x27;s PC\\\\Documents\\\\Computer Science\\\\cmps 183\\\\web2py\\\\applications\\\\grade1\\\\&quot;])</div></td></tr><tr><td style="font-weight:bold;vertical-align:top;">applications_parent</td><td style="vertical-align:top;">:</td><td><div>C:\\Users\\Mike&#x27;s PC\\Documents\\Computer Science\\cmps 183\\web2py</div></td></tr><tr><td style="font-weight:bold;vertical-align:top;">cmd_args</td><td style="vertical-align:top;">:</td><td><div><table></table></div></td></tr><tr><td style="font-weight:bold;vertical-align:top;">cmd_options</td><td style="vertical-align:top;">:</td><td><div>&lt;Values at 0x443c088: {&#x27;verbose&#x27;: False, &#x27;ip&#x27;: &#x27;127.0.0.1&#x27;, &#x27;debuglevel&#x27;: 30, &#x27;with_scheduler&#x27;: False, &#x27;shutdown_timeout&#x27;: 5, &#x27;taskbar&#x27;: False, &#x27;with_coverage&#x27;: False, &#x27;pid_filename&#x27;: &#x27;httpserver.pid&#x27;, &#x27;maxthreads&#x27;: None, &#x27;softcron&#x27;: False, &#x27;server_name&#x27;: &#x27;DESKTOP-ET618DR&#x27;, &#x27;bpython&#x27;: False, &#x27;nogui&#x27;: False, &#x27;port&#x27;: 8000, &#x27;print_errors&#x27;: True, &#x27;extcron&#x27;: False, &#x27;runcron&#x27;: False, &#x27;run_system_tests&#x27;: False, &#x27;test&#x27;: None, &#x27;folder&#x27;: &quot;C:\\\\Users\\\\Mike&#x27;s PC\\\\Documents\\\\Computer Science\\\\cmps 183\\\\web2py&quot;, &#x27;config&#x27;: &#x27;&#x27;, &#x27;minthreads&#x27;: None, &#x27;shell&#x27;: None, &#x27;run&#x27;: &#x27;&#x27;, &#x27;log_filename&#x27;: &#x27;httpserver.log&#x27;, &#x27;profiler_dir&#x27;: None, &#x27;args&#x27;: [&#x27;&#x27;], &#x27;socket_timeout&#x27;: 5, &#x27;ssl_ca_certificate&#x27;: None, &#x27;scheduler&#x27;: None, &#x27;interfaces&#x27;: None, &#x27;ssl_private_key&#x27;: &#x27;&#x27;, &#x27;gae&#x27;: None, &#x27;password&#x27;: &#x27;******&#x27;, &#x27;request_queue_size&#x27;: 5, &#x27;ssl_certificate&#x27;: &#x27;&#x27;, &#x27;cronjob&#x27;: False, &#x27;numthreads&#x27;: None, &#x27;quiet&#x27;: False, &#x27;import_models&#x27;: False, &#x27;timeout&#x27;: 10, &#x27;plain&#x27;: False, &#x27;nobanner&#x27;: False}&gt;</div></td></tr><tr><td style="font-weight:bold;vertical-align:top;">db_sessions</td><td style="vertical-align:top;">:</td><td><div>set([&#x27;grade1&#x27;])</div></td></tr><tr><td style="font-weight:bold;vertical-align:top;">debugging</td><td style="vertical-align:top;">:</td><td><div>False</div></td></tr><tr><td style="font-weight:bold;vertical-align:top;">gluon_parent</td><td style="vertical-align:top;">:</td><td><div>C:\\Users\\Mike&#x27;s PC\\Documents\\Computer Science\\cmps 183\\web2py</div></td></tr><tr><td style="font-weight:bold;vertical-align:top;">is_jython</td><td style="vertical-align:top;">:</td><td><div>False</div></td></tr><tr><td style="font-weight:bold;vertical-align:top;">is_py2</td><td style="vertical-align:top;">:</td><td><div>True</div></td></tr><tr><td style="font-weight:bold;vertical-align:top;">is_pypy</td><td style="vertical-align:top;">:</td><td><div>False</div></td></tr><tr><td style="font-weight:bold;vertical-align:top;">is_source</td><td style="vertical-align:top;">:</td><td><div>True</div></td></tr><tr><td style="font-weight:bold;vertical-align:top;">local_hosts</td><td style="vertical-align:top;">:</td><td><div><table><tr><td><div>fe80::1c43:41e6:fedb:f337%8</div></td></tr><tr><td><div>::ffff:127.0.0.1</div></td></tr><tr><td><div>::1</div></td></tr><tr><td><div>192.168.0.110</div></td></tr><tr><td><div>DESKTOP-ET618DR</div></td></tr><tr><td><div>127.0.0.1</div></td></tr></table></div></td></tr><tr><td style="font-weight:bold;vertical-align:top;">web2py_version</td><td style="vertical-align:top;">:</td><td><div>2.16.1-stable+timestamp.2017.11.14.05.54.25</div></td></tr></table></div></td></tr><tr><td style="font-weight:bold;vertical-align:top;">is_https</td><td style="vertical-align:top;">:</td><td><div>False</div></td></tr><tr><td style="font-weight:bold;vertical-align:top;">is_local</td><td style="vertical-align:top;">:</td><td><div>True</div></td></tr><tr><td style="font-weight:bold;vertical-align:top;">is_restful</td><td style="vertical-align:top;">:</td><td><div>False</div></td></tr><tr><td style="font-weight:bold;vertical-align:top;">is_scheduler</td><td style="vertical-align:top;">:</td><td><div>False</div></td></tr><tr><td style="font-weight:bold;vertical-align:top;">is_shell</td><td style="vertical-align:top;">:</td><td><div>False</div></td></tr><tr><td style="font-weight:bold;vertical-align:top;">now</td><td style="vertical-align:top;">:</td><td><div>datetime.datetime(2018, 6, 7, 4, 41, 31, 512000)</div></td></tr><tr><td style="font-weight:bold;vertical-align:top;">raw_args</td><td style="vertical-align:top;">:</td><td><div></div></td></tr><tr><td style="font-weight:bold;vertical-align:top;">raw_extension</td><td style="vertical-align:top;">:</td><td><div>None</div></td></tr><tr><td style="font-weight:bold;vertical-align:top;">url</td><td style="vertical-align:top;">:</td><td><div>/grade1/default/purchase</div></td></tr><tr><td style="font-weight:bold;vertical-align:top;">utcnow</td><td style="vertical-align:top;">:</td><td><div>datetime.datetime(2018, 6, 7, 11, 41, 31, 512000)</div></td></tr><tr><td style="font-weight:bold;vertical-align:top;">wsgi</td><td style="vertical-align:top;">:</td><td><div>&lt;gluon.main.LazyWSGI object at 0x0000000005EE2048&gt;</div></td></tr></table></div>'
tRp76
sS'frames'
p77
(lp78
(dp79
S'file'
p80
S"C:\\Users\\Mike's PC\\Documents\\Computer Science\\cmps 183\\web2py\\gluon\\restricted.py"
p81
sS'dump'
p82
(dp83
S'environment'
p84
S"{'A': <class 'gluon.html.A'>, 'ANY_OF': <class 'gluon.validators.ANY_OF'>, 'ASSIGNJS': <function ASSIGNJS>, 'AppConfig': <function AppConfig>, 'Auth': <class 'gluon.tools.Auth'>, 'B': <class 'gluon.html.B'>, 'BEAUTIFY': <class 'gluon.html.BEAUTIFY'>, 'BODY': <class 'gluon.html.BODY'>, 'BR': <class 'gluon.html.BR'>, 'BUTTON': <class 'gluon.html.BUTTON'>, ...}"
p85
sS'ccode'
p86
S'<code object <module> at 0000000005EE4830, file ...lications\\grade1\\controllers/default.py", line 8>'
p87
ssS'lnum'
p88
I219
sS'lines'
p89
(dp90
I214
S'    if environment is None:'
p91
sI215
S'        environment = {}'
p92
sI216
S"    environment['__file__'] = layer"
p93
sI217
S"    environment['__name__'] = '__restricted__'"
p94
sI218
S'    try:'
p95
sI219
S'        exec(ccode, environment)'
p96
sI220
S'    except HTTP:'
p97
sI221
S'        raise'
p98
sI222
S'    except RestrictedError:'
p99
sI223
S'        # do not encapsulate (obfuscate) the original RestrictedError'
p100
ssS'call'
p101
S'(ccode=<code object <module> at 0000000005EE4830, file ...lications\\grade1\\controllers/default.py", line 8>, environment={\'A\': <class \'gluon.html.A\'>, \'ANY_OF\': <class \'gluon.validators.ANY_OF\'>, \'ASSIGNJS\': <function ASSIGNJS>, \'AppConfig\': <function AppConfig>, \'Auth\': <class \'gluon.tools.Auth\'>, \'B\': <class \'gluon.html.B\'>, \'BEAUTIFY\': <class \'gluon.html.BEAUTIFY\'>, \'BODY\': <class \'gluon.html.BODY\'>, \'BR\': <class \'gluon.html.BR\'>, \'BUTTON\': <class \'gluon.html.BUTTON\'>, ...}, layer=r"C:\\Users\\Mike\'s PC\\Documents\\Computer Science\\cm...web2py\\applications\\grade1\\controllers/default.py", scode=<code object <module> at 0000000005EE4830, file ...lications\\grade1\\controllers/default.py", line 8>)'
p102
sS'func'
p103
S'restricted'
p104
sa(dp105
g80
S"C:\\Users\\Mike's PC\\Documents\\Computer Science\\cmps 183\\web2py\\applications\\grade1\\controllers\\default.py"
p106
sg82
(dp107
sg88
I128
sg89
(dp108
I117
S''
sI118
S''
sI119
S'def call():'
p109
sI120
S'    """'
p110
sI121
S'    exposes services. for example:'
p111
sI122
S'    http://..../[app]/default/call/jsonrpc'
p112
sI123
S'    decorate with @services.jsonrpc the functions to expose'
p113
sI124
S'    supports xml, json, xmlrpc, jsonrpc, amfrpc, rss, csv'
p114
sI125
S'    """'
p115
sI126
S'    return service()'
p116
ssg101
S'()'
p117
sg103
S'<module>'
p118
sa(dp119
g80
S"C:\\Users\\Mike's PC\\Documents\\Computer Science\\cmps 183\\web2py\\gluon\\globals.py"
p120
sg82
(dp121
S'self'
p122
S'undefined'
p123
sS'f'
S'<function purchase>'
p124
ssg88
I419
sg89
(dp125
I416
S'        self.menu = []             # used by the default view layout'
p126
sI417
S'        self.files = []            # used by web2py_ajax.html'
p127
sI418
S'        self._vars = None'
p128
sI419
S'        self._caller = lambda f: f()'
p129
sI420
S'        self._view_environment = None'
p130
sI421
S'        self._custom_commit = None'
p131
sI422
S'        self._custom_rollback = None'
p132
sI423
S"        self.generic_patterns = ['*']"
p133
sI414
S"        self.flash = ''            # used by the default view layout"
p134
sI415
S'        self.meta = Storage()      # used by web2py_ajax.html'
p135
ssg101
S'(f=<function purchase>)'
p136
sg103
S'<lambda>'
p137
sa(dp138
g80
S"C:\\Users\\Mike's PC\\Documents\\Computer Science\\cmps 183\\web2py\\applications\\grade1\\controllers\\default.py"
p139
sg82
(dp140
S'description'
p141
g123
ssg88
I44
sg89
(dp142
I39
S'    try:'
p143
sI40
S'        charge = stripe.Charge.create('
p144
sI41
S'            amount=int(amount * 100),'
p145
sI42
S'            currency="usd",'
p146
sI43
S"            source=token['id'],"
p147
sI44
S'            description="Purchase",'
p148
sI45
S'        )'
p149
sI46
S'    except stripe.error.CardError as e:'
p150
sI47
S'        logger.info("The card has been declined.")'
p151
sI48
S'        logger.info("%r" % traceback.format_exc())'
p152
ssg101
S'()'
p153
sg103
S'purchase'
p154
sa(dp155
g80
S"C:\\Users\\Mike's PC\\Documents\\Computer Science\\cmps 183\\web2py\\applications\\grade1\\modules\\stripe\\resource.py"
p156
sg82
(dp157
S'requestor.request'
p158
S'<bound method APIRequestor.request of <applicati...odules.stripe.api_requestor.APIRequestor object>>'
p159
sS'headers'
p160
S'None'
p161
sS'url'
p162
S"'/v1/charges'"
p163
sS'requestor'
p164
S'<applications.grade1.modules.stripe.api_requestor.APIRequestor object>'
p165
sS'params'
p166
S"{'amount': 0, 'currency': 'usd', 'description': 'Purchase', 'source': u'tok_1CaMUhHfIFbtcQjJTE1CwN4t'}"
p167
sS'api_key'
p168
S'None'
p169
sS'response'
p170
g123
ssg88
I466
sg89
(dp171
I461
S'    def create(cls, api_key=None, idempotency_key=None,'
p172
sI462
S'               stripe_account=None, **params):'
p173
sI463
S'        requestor = api_requestor.APIRequestor(api_key, account=stripe_account)'
p174
sI464
S'        url = cls.class_url()'
p175
sI465
S'        headers = populate_headers(idempotency_key)'
p176
sI466
S"        response, api_key = requestor.request('post', url, params, headers)"
p177
sI467
S'        return convert_to_stripe_object(response, api_key, stripe_account)'
p178
sI468
S''
sI469
S''
sI470
S'class UpdateableAPIResource(APIResource):'
p179
ssg101
S"(cls=<class 'applications.grade1.modules.stripe.resource.Charge'>, api_key=None, idempotency_key=None, stripe_account=None, **params={'amount': 0, 'currency': 'usd', 'description': 'Purchase', 'source': u'tok_1CaMUhHfIFbtcQjJTE1CwN4t'})"
p180
sg103
S'create'
p181
sa(dp182
g80
S"C:\\Users\\Mike's PC\\Documents\\Computer Science\\cmps 183\\web2py\\applications\\grade1\\modules\\stripe\\api_requestor.py"
p183
sg82
(dp184
S'self.interpret_response'
p185
S'<bound method APIRequestor.interpret_response of...odules.stripe.api_requestor.APIRequestor object>>'
p186
sS'rcode'
p187
S'401'
p188
sS'resp'
p189
g123
sS'rbody'
p190
S'\'{\\n  "error": {\\n    "message": "Invalid API Key p...2T\\\\"",\\n    "type": "invalid_request_error"\\n  }\\n}\\n\''
p191
sS'rheaders'
p192
S'{\'Content-Length\': \'138\', \'Access-Control-Expose...on\', \'Www-Authenticate\': \'Bearer realm="Stripe"\'}'
p193
sS'self'
p194
S'<applications.grade1.modules.stripe.api_requestor.APIRequestor object>'
p195
ssg88
I140
sg89
(dp196
I135
S'        return _build_api_url(url, cls.encode(params))'
p197
sI136
S''
sI137
S'    def request(self, method, url, params=None, headers=None):'
p198
sI138
S'        rbody, rcode, rheaders, my_api_key = self.request_raw('
p199
sI139
S'            method.lower(), url, params, headers)'
p200
sI140
S'        resp = self.interpret_response(rbody, rcode, rheaders)'
p201
sI141
S'        return resp, my_api_key'
p202
sI142
S''
sI143
S'    def handle_api_error(self, rbody, rcode, resp, rheaders):'
p203
sI144
S'        try:'
p204
ssg101
S"(self=<applications.grade1.modules.stripe.api_requestor.APIRequestor object>, method='post', url='/v1/charges', params={'amount': 0, 'currency': 'usd', 'description': 'Purchase', 'source': u'tok_1CaMUhHfIFbtcQjJTE1CwN4t'}, headers=None)"
p205
sg103
g74
sa(dp206
g80
S"C:\\Users\\Mike's PC\\Documents\\Computer Science\\cmps 183\\web2py\\applications\\grade1\\modules\\stripe\\api_requestor.py"
p207
sg82
(dp208
S'rcode'
p209
S'401'
p210
sS'self'
p211
S'<applications.grade1.modules.stripe.api_requestor.APIRequestor object>'
p212
sS'rbody'
p213
S'u\'{\\n  "error": {\\n    "message": "Invalid API K...,\\n    "type": "invalid_request_error"\\n  }\\n}\\n\''
p214
sS'self.handle_api_error'
p215
S'<bound method APIRequestor.handle_api_error of <...odules.stripe.api_requestor.APIRequestor object>>'
p216
sS'rheaders'
p217
S'{\'Content-Length\': \'138\', \'Access-Control-Expose...on\', \'Www-Authenticate\': \'Bearer realm="Stripe"\'}'
p218
sS'resp'
p219
S'{u\'error\': {u\'message\': u\'Invalid API Key provided: "**_****_*********************b2T"\', u\'type\': u\'invalid_request_error\'}}'
p220
ssg88
I276
sg89
(dp221
I271
S'            raise error.APIError('
p222
sI272
S'                "Invalid response body from API: %s "'
p223
sI273
S'                "(HTTP response code was %d)" % (rbody, rcode),'
p224
sI274
S'                rbody, rcode, rheaders)'
p225
sI275
S'        if not (200 <= rcode < 300):'
p226
sI276
S'            self.handle_api_error(rbody, rcode, resp, rheaders)'
p227
sI277
S'        return resp'
p228
sI278
S''
sI279
S'    # Deprecated request handling.  Will all be removed in 2.0'
p229
sI280
S'    def _deprecated_request(self, impl, method, url, headers, params):'
p230
ssg101
S'(self=<applications.grade1.modules.stripe.api_requestor.APIRequestor object>, rbody=u\'{\\n  "error": {\\n    "message": "Invalid API K...,\\n    "type": "invalid_request_error"\\n  }\\n}\\n\', rcode=401, rheaders={\'Content-Length\': \'138\', \'Access-Control-Expose...on\', \'Www-Authenticate\': \'Bearer realm="Stripe"\'})'
p231
sg103
S'interpret_response'
p232
sa(dp233
g80
S"C:\\Users\\Mike's PC\\Documents\\Computer Science\\cmps 183\\web2py\\applications\\grade1\\modules\\stripe\\api_requestor.py"
p234
sg82
(dp235
S'rheaders'
p236
S'{\'Content-Length\': \'138\', \'Access-Control-Expose...on\', \'Www-Authenticate\': \'Bearer realm="Stripe"\'}'
p237
ssg88
I163
sg89
(dp238
I160
S'        elif rcode == 401:'
p239
sI161
S'            raise error.AuthenticationError('
p240
sI162
S"                err.get('message'), rbody, rcode, resp,"
p241
sI163
S'                rheaders)'
p242
sI164
S'        elif rcode == 402:'
p243
sI165
S"            raise error.CardError(err.get('message'), err.get('param'),"
p244
sI166
S"                                  err.get('code'), rbody, rcode, resp,"
p245
sI167
S'                                  rheaders)'
p246
sI158
S"                err.get('message'), err.get('param'),"
p247
sI159
S'                rbody, rcode, resp, rheaders)'
p248
ssg101
S'(self=<applications.grade1.modules.stripe.api_requestor.APIRequestor object>, rbody=u\'{\\n  "error": {\\n    "message": "Invalid API K...,\\n    "type": "invalid_request_error"\\n  }\\n}\\n\', rcode=401, resp={u\'error\': {u\'message\': u\'Invalid API Key provided: "**_****_*********************b2T"\', u\'type\': u\'invalid_request_error\'}}, rheaders={\'Content-Length\': \'138\', \'Access-Control-Expose...on\', \'Www-Authenticate\': \'Bearer realm="Stripe"\'})'
p249
sg103
S'handle_api_error'
p250
sasS'pyver'
p251
S'Python 2.7.14: C:\\ProgramData\\Anaconda2\\python.exe (prefix: C:\\ProgramData\\Anaconda2)'
p252
sS'session'
p253
g75
(S's\xff\x08\x00\x00<div><table><tr><td style="font-weight:bold;vertical-align:top;">auth</td><td style="vertical-align:top;">:</td><td><div><table><tr><td style="font-weight:bold;vertical-align:top;">expiration</td><td style="vertical-align:top;">:</td><td><div>3600</div></td></tr><tr><td style="font-weight:bold;vertical-align:top;">hmac_key</td><td style="vertical-align:top;">:</td><td><div>93642ed9-77b5-4cca-b243-fffb0871175c</div></td></tr><tr><td style="font-weight:bold;vertical-align:top;">last_visit</td><td style="vertical-align:top;">:</td><td><div>datetime.datetime(2018, 6, 7, 4, 39, 32, 11000)</div></td></tr><tr><td style="font-weight:bold;vertical-align:top;">user</td><td style="vertical-align:top;">:</td><td><div><table><tr><td style="font-weight:bold;vertical-align:top;">email</td><td style="vertical-align:top;">:</td><td><div>proro@gmail.com</div></td></tr><tr><td style="font-weight:bold;vertical-align:top;">first_name</td><td style="vertical-align:top;">:</td><td><div>first </div></td></tr><tr><td style="font-weight:bold;vertical-align:top;">id</td><td style="vertical-align:top;">:</td><td><div>2L</div></td></tr><tr><td style="font-weight:bold;vertical-align:top;">last_name</td><td style="vertical-align:top;">:</td><td><div>name</div></td></tr><tr><td style="font-weight:bold;vertical-align:top;">registration_id</td><td style="vertical-align:top;">:</td><td><div></div></td></tr><tr><td style="font-weight:bold;vertical-align:top;">registration_key</td><td style="vertical-align:top;">:</td><td><div></div></td></tr><tr><td style="font-weight:bold;vertical-align:top;">reset_password_key</td><td style="vertical-align:top;">:</td><td><div></div></td></tr></table></div></td></tr><tr><td style="font-weight:bold;vertical-align:top;">user_groups</td><td style="vertical-align:top;">:</td><td><div><table><tr><td style="font-weight:bold;vertical-align:top;">2</td><td style="vertical-align:top;">:</td><td><div>user_2</div></td></tr></table></div></td></tr></table></div></td></tr><tr><td style="font-weight:bold;vertical-align:top;">flash</td><td style="vertical-align:top;">:</td><td><div>None</div></td></tr><tr><td style="font-weight:bold;vertical-align:top;">hmac_key</td><td style="vertical-align:top;">:</td><td><div>721c70dd-d1f3-4f25-b372-ca3214c0ff3e</div></td></tr></table></div>'
tRp254
sS'etype'
p255
S"<class 'applications.grade1.modules.stripe.error.AuthenticationError'>"
p256
sS'date'
p257
S'Thu Jun 07 04:41:32 2018'
p258
sS'response'
p259
g75
(S'sE\x1e\x00\x00<div><table><tr><td style="font-weight:bold;vertical-align:top;">body</td><td style="vertical-align:top;">:</td><td><div>&lt;cStringIO.StringO object at 0x0000000005E3D9D0&gt;</div></td></tr><tr><td style="font-weight:bold;vertical-align:top;">cookies</td><td style="vertical-align:top;">:</td><td><div><table><tr><td style="font-weight:bold;vertical-align:top;">session_id_grade1</td><td style="vertical-align:top;">:</td><td><div>1:46c7c6fc-8358-498f-8783-0875623e1786<table><tr><td style="font-weight:bold;vertical-align:top;">comment</td><td style="vertical-align:top;">:</td><td><div></div></td></tr><tr><td style="font-weight:bold;vertical-align:top;">domain</td><td style="vertical-align:top;">:</td><td><div></div></td></tr><tr><td style="font-weight:bold;vertical-align:top;">expires</td><td style="vertical-align:top;">:</td><td><div></div></td></tr><tr><td style="font-weight:bold;vertical-align:top;">httponly</td><td style="vertical-align:top;">:</td><td><div></div></td></tr><tr><td style="font-weight:bold;vertical-align:top;">max-age</td><td style="vertical-align:top;">:</td><td><div></div></td></tr><tr><td style="font-weight:bold;vertical-align:top;">path</td><td style="vertical-align:top;">:</td><td><div>/</div></td></tr><tr><td style="font-weight:bold;vertical-align:top;">secure</td><td style="vertical-align:top;">:</td><td><div></div></td></tr><tr><td style="font-weight:bold;vertical-align:top;">version</td><td style="vertical-align:top;">:</td><td><div></div></td></tr></table></div></td></tr></table></div></td></tr><tr><td style="font-weight:bold;vertical-align:top;">delimiters</td><td style="vertical-align:top;">:</td><td><div><table><tr><td><div>{{</div></td></tr><tr><td><div>}}</div></td></tr></table></div></td></tr><tr><td style="font-weight:bold;vertical-align:top;">files</td><td style="vertical-align:top;">:</td><td><div><table></table></div></td></tr><tr><td style="font-weight:bold;vertical-align:top;">flash</td><td style="vertical-align:top;">:</td><td><div></div></td></tr><tr><td style="font-weight:bold;vertical-align:top;">form_label_separator</td><td style="vertical-align:top;">:</td><td><div></div></td></tr><tr><td style="font-weight:bold;vertical-align:top;">formstyle</td><td style="vertical-align:top;">:</td><td><div>bootstrap3_inline</div></td></tr><tr><td style="font-weight:bold;vertical-align:top;">generic_patterns</td><td style="vertical-align:top;">:</td><td><div><table><tr><td><div>*</div></td></tr></table></div></td></tr><tr><td style="font-weight:bold;vertical-align:top;">google_analytics_id</td><td style="vertical-align:top;">:</td><td><div>None</div></td></tr><tr><td style="font-weight:bold;vertical-align:top;">headers</td><td style="vertical-align:top;">:</td><td><div><table><tr><td style="font-weight:bold;vertical-align:top;">X-Powered-By</td><td style="vertical-align:top;">:</td><td><div>web2py</div></td></tr></table></div></td></tr><tr><td style="font-weight:bold;vertical-align:top;">logo</td><td style="vertical-align:top;">:</td><td><div><a class="navbar-brand" href="http://www.web2py.com/" id="web2py-logo"><b>web<span>2</span>py</b>&trade;&nbsp;</a></div></td></tr><tr><td style="font-weight:bold;vertical-align:top;">menu</td><td style="vertical-align:top;">:</td><td><div><table><tr><td><div><table><tr><td><div>Shop</div></td></tr><tr><td><div>False</div></td></tr><tr><td><div>/grade1/default/index</div></td></tr></table></div></td></tr><tr><td><div><table><tr><td><div>Manage Products</div></td></tr><tr><td><div>False</div></td></tr><tr><td><div>/grade1/default/product_management</div></td></tr></table></div></td></tr><tr><td><div><table><tr><td><div>View Orders</div></td></tr><tr><td><div>False</div></td></tr><tr><td><div>/grade1/default/view_orders</div></td></tr></table></div></td></tr></table></div></td></tr><tr><td style="font-weight:bold;vertical-align:top;">meta</td><td style="vertical-align:top;">:</td><td><div><table><tr><td style="font-weight:bold;vertical-align:top;">author</td><td style="vertical-align:top;">:</td><td><div>Your Name &lt;you@example.com&gt;</div></td></tr><tr><td style="font-weight:bold;vertical-align:top;">description</td><td style="vertical-align:top;">:</td><td><div>a cool new app</div></td></tr><tr><td style="font-weight:bold;vertical-align:top;">generator</td><td style="vertical-align:top;">:</td><td><div>Web2py Web Framework</div></td></tr><tr><td style="font-weight:bold;vertical-align:top;">keywords</td><td style="vertical-align:top;">:</td><td><div><table><tr><td><div>web2py</div></td></tr><tr><td><div>python</div></td></tr><tr><td><div>framework</div></td></tr></table></div></td></tr></table></div></td></tr><tr><td style="font-weight:bold;vertical-align:top;">models_to_run</td><td style="vertical-align:top;">:</td><td><div><table><tr><td><div>^\\w+\\.py$</div></td></tr><tr><td><div>^default/\\w+\\.py$</div></td></tr><tr><td><div>^default/purchase/\\w+\\.py$</div></td></tr></table></div></td></tr><tr><td style="font-weight:bold;vertical-align:top;">postprocessing</td><td style="vertical-align:top;">:</td><td><div><table></table></div></td></tr><tr><td style="font-weight:bold;vertical-align:top;">session_client</td><td style="vertical-align:top;">:</td><td><div>127.0.0.1</div></td></tr><tr><td style="font-weight:bold;vertical-align:top;">session_cookie_compression_level</td><td style="vertical-align:top;">:</td><td><div>None</div></td></tr><tr><td style="font-weight:bold;vertical-align:top;">session_cookie_expires</td><td style="vertical-align:top;">:</td><td><div>None</div></td></tr><tr><td style="font-weight:bold;vertical-align:top;">session_data_name</td><td style="vertical-align:top;">:</td><td><div>session_data_grade1</div></td></tr><tr><td style="font-weight:bold;vertical-align:top;">session_db_record_id</td><td style="vertical-align:top;">:</td><td><div>1L</div></td></tr><tr><td style="font-weight:bold;vertical-align:top;">session_db_table</td><td style="vertical-align:top;">:</td><td><div>&lt;Table web2py_session_grade1 (id, locked, client_ip, created_datetime, modified_datetime, unique_key, session_data)&gt;</div></td></tr><tr><td style="font-weight:bold;vertical-align:top;">session_db_unique_key</td><td style="vertical-align:top;">:</td><td><div>46c7c6fc-8358-498f-8783-0875623e1786</div></td></tr><tr><td style="font-weight:bold;vertical-align:top;">session_hash</td><td style="vertical-align:top;">:</td><td><div>d05a38d079b9b8378a9ebdfda171ea43</div></td></tr><tr><td style="font-weight:bold;vertical-align:top;">session_id</td><td style="vertical-align:top;">:</td><td><div>1:46c7c6fc-8358-498f-8783-0875623e1786</div></td></tr><tr><td style="font-weight:bold;vertical-align:top;">session_id_name</td><td style="vertical-align:top;">:</td><td><div>session_id_grade1</div></td></tr><tr><td style="font-weight:bold;vertical-align:top;">session_masterapp</td><td style="vertical-align:top;">:</td><td><div>grade1</div></td></tr><tr><td style="font-weight:bold;vertical-align:top;">session_new</td><td style="vertical-align:top;">:</td><td><div>False</div></td></tr><tr><td style="font-weight:bold;vertical-align:top;">session_storage_type</td><td style="vertical-align:top;">:</td><td><div>db</div></td></tr><tr><td style="font-weight:bold;vertical-align:top;">status</td><td style="vertical-align:top;">:</td><td><div>200</div></td></tr><tr><td style="font-weight:bold;vertical-align:top;">subtitle</td><td style="vertical-align:top;">:</td><td><div></div></td></tr><tr><td style="font-weight:bold;vertical-align:top;">title</td><td style="vertical-align:top;">:</td><td><div>Grade1</div></td></tr><tr><td style="font-weight:bold;vertical-align:top;">view</td><td style="vertical-align:top;">:</td><td><div>default/purchase.html</div></td></tr></table></div>'
tRp260
sS'locals'
p261
(dp262
S'err'
p263
S'{u\'message\': u\'Invalid API Key provided: "**_****_*********************b2T"\', u\'type\': u\'invalid_request_error\'}'
p264
sS'rheaders'
p265
S'{\'Content-Length\': \'138\', \'Access-Control-Expose...on\', \'Www-Authenticate\': \'Bearer realm="Stripe"\'}'
p266
sS'resp'
p267
S'{u\'error\': {u\'message\': u\'Invalid API Key provided: "**_****_*********************b2T"\', u\'type\': u\'invalid_request_error\'}}'
p268
sS'rbody'
p269
S'u\'{\\n  "error": {\\n    "message": "Invalid API K...,\\n    "type": "invalid_request_error"\\n  }\\n}\\n\''
p270
sS'rcode'
p271
S'401'
p272
sS'self'
p273
S'<applications.grade1.modules.stripe.api_requestor.APIRequestor object>'
p274
sssS'traceback'
p275
S'Traceback (most recent call last):\n  File "C:\\Users\\Mike\'s PC\\Documents\\Computer Science\\cmps 183\\web2py\\gluon\\restricted.py", line 219, in restricted\n    exec(ccode, environment)\n  File "C:\\Users\\Mike\'s PC\\Documents\\Computer Science\\cmps 183\\web2py\\applications\\grade1\\controllers/default.py", line 128, in <module>\n  File "C:\\Users\\Mike\'s PC\\Documents\\Computer Science\\cmps 183\\web2py\\gluon\\globals.py", line 419, in <lambda>\n    self._caller = lambda f: f()\n  File "C:\\Users\\Mike\'s PC\\Documents\\Computer Science\\cmps 183\\web2py\\applications\\grade1\\controllers/default.py", line 44, in purchase\n    description="Purchase",\n  File "applications\\grade1\\modules\\stripe\\resource.py", line 466, in create\n    response, api_key = requestor.request(\'post\', url, params, headers)\n  File "applications\\grade1\\modules\\stripe\\api_requestor.py", line 140, in request\n    resp = self.interpret_response(rbody, rcode, rheaders)\n  File "applications\\grade1\\modules\\stripe\\api_requestor.py", line 276, in interpret_response\n    self.handle_api_error(rbody, rcode, resp, rheaders)\n  File "applications\\grade1\\modules\\stripe\\api_requestor.py", line 163, in handle_api_error\n    rheaders)\nAuthenticationError: Invalid API Key provided: "**_****_*********************b2T"\n'
p276
s.